target datalayout = "e-m:e-p270:32:32-p271:32:32-p272:64:64-i64:64-i128:128-f80:128-n8:16:32:64-S128"
target triple = "x86_64-pc-linux-gnu"

; Function Attrs: nounwind uwtable
define internal void @rgba64leToA_c(ptr noundef %0, ptr noundef %1, ptr noundef %2, ptr noundef %3, i32 noundef %4, ptr noundef %5, ptr noundef %6) #2 {
  %8 = alloca ptr, align 8
  %9 = alloca ptr, align 8
  %10 = alloca ptr, align 8
  %11 = alloca ptr, align 8
  %12 = alloca i32, align 4
  %13 = alloca ptr, align 8
  %14 = alloca ptr, align 8
  %15 = alloca ptr, align 8
  %16 = alloca ptr, align 8
  %17 = alloca i32, align 4
  store ptr %0, ptr %8, align 8, !tbaa !34
  store ptr %1, ptr %9, align 8, !tbaa !34
  store ptr %2, ptr %10, align 8, !tbaa !34
  store ptr %3, ptr %11, align 8, !tbaa !34
  store i32 %4, ptr %12, align 4, !tbaa !30
  store ptr %5, ptr %13, align 8, !tbaa !35
  store ptr %6, ptr %14, align 8, !tbaa !31
  call void @llvm.lifetime.start.p0(i64 8, ptr %15) #9
  %18 = load ptr, ptr %8, align 8, !tbaa !34
  store ptr %18, ptr %15, align 8, !tbaa !43
  call void @llvm.lifetime.start.p0(i64 8, ptr %16) #9
  %19 = load ptr, ptr %9, align 8, !tbaa !34
  store ptr %19, ptr %16, align 8, !tbaa !43
  call void @llvm.lifetime.start.p0(i64 4, ptr %17) #9
  store i32 0, ptr %17, align 4, !tbaa !30
  br label %20

20:                                               ; preds = %36, %7
  %21 = load i32, ptr %17, align 4, !tbaa !30
  %22 = load i32, ptr %12, align 4, !tbaa !30
  %23 = icmp slt i32 %21, %22
  br i1 %23, label %24, label %39

24:                                               ; preds = %20
  %25 = load ptr, ptr %16, align 8, !tbaa !43
  %26 = load i32, ptr %17, align 4, !tbaa !30
  %27 = mul nsw i32 4, %26
  %28 = sext i32 %27 to i64
  %29 = getelementptr inbounds i16, ptr %25, i64 %28
  %30 = getelementptr inbounds i16, ptr %29, i64 3
  %31 = load i16, ptr %30, align 1, !tbaa !36
  %32 = load ptr, ptr %15, align 8, !tbaa !43
  %33 = load i32, ptr %17, align 4, !tbaa !30
  %34 = sext i32 %33 to i64
  %35 = getelementptr inbounds i16, ptr %32, i64 %34
  store i16 %31, ptr %35, align 2, !tbaa !44
  br label %36

36:                                               ; preds = %24
  %37 = load i32, ptr %17, align 4, !tbaa !30
  %38 = add nsw i32 %37, 1
  store i32 %38, ptr %17, align 4, !tbaa !30
  br label %20, !llvm.loop !115

39:                                               ; preds = %20
  call void @llvm.lifetime.end.p0(i64 4, ptr %17) #9
  call void @llvm.lifetime.end.p0(i64 8, ptr %16) #9
  call void @llvm.lifetime.end.p0(i64 8, ptr %15) #9
  ret void
}